; Function Attrs: mustprogress nofree norecurse nosync nounwind willreturn memory(argmem: read) uwtable
define internal noundef zeroext i1 @_ZN2cv12cpu_baselineL13hasNonZero16uEPKtm(ptr noundef readonly captures(none) %0, i64 noundef %1) #1 {
  %.not.i = icmp eq i64 %1, 0
  br i1 %.not.i, label %_ZN2cv12cpu_baseline11hasNonZero_ItEEbPKT_m.exit, label %.preheader.i

.preheader.i:                                     ; preds = %2, %.preheader.i
  %.013.i = phi i64 [ %6, %.preheader.i ], [ 0, %2 ]
  %3 = getelementptr inbounds nuw i16, ptr %0, i64 %.013.i
  %4 = load i16, ptr %3, align 2, !tbaa !10
  %5 = icmp ne i16 %4, 0
  %6 = add nuw i64 %.013.i, 1
  %7 = icmp uge i64 %6, %1
  %.not11.i = select i1 %5, i1 true, i1 %7
  br i1 %.not11.i, label %_ZN2cv12cpu_baseline11hasNonZero_ItEEbPKT_m.exit, label %.preheader.i, !llvm.loop !12

_ZN2cv12cpu_baseline11hasNonZero_ItEEbPKT_m.exit: ; preds = %.preheader.i, %2
  %.08.i = phi i1 [ false, %2 ], [ %5, %.preheader.i ]
  ret i1 %.08.i
}